target datalayout = "e-m:e-p270:32:32-p271:32:32-p272:64:64-i64:64-i128:128-f80:128-n8:16:32:64-S128"
target triple = "x86_64-pc-linux-gnu"

%struct.aom_codec_iface = type { ptr, i32, i64, ptr, ptr, ptr, %struct.aom_codec_dec_iface, %struct.aom_codec_enc_iface, ptr }
%struct.aom_codec_dec_iface = type { ptr, ptr, ptr, ptr, ptr }
%struct.aom_codec_enc_iface = type { i32, ptr, ptr, ptr, ptr, ptr, ptr }
%struct.aom_codec_stream_info = type { i32, i32, i32, i32, i32, i32 }

; Function Attrs: nounwind uwtable
define hidden i32 @aom_codec_peek_stream_info(ptr noundef %0, ptr noundef %1, i64 noundef %2, ptr noundef %3) #0 {
  %5 = alloca ptr, align 8
  %6 = alloca ptr, align 8
  %7 = alloca i64, align 8
  %8 = alloca ptr, align 8
  %9 = alloca i32, align 4
  store ptr %0, ptr %5, align 8
  store ptr %1, ptr %6, align 8
  store i64 %2, ptr %7, align 8
  store ptr %3, ptr %8, align 8
  %10 = load ptr, ptr %5, align 8
  %11 = icmp ne ptr %10, null
  br i1 %11, label %12, label %21

12:                                               ; preds = %4
  %13 = load ptr, ptr %6, align 8
  %14 = icmp ne ptr %13, null
  br i1 %14, label %15, label %21

15:                                               ; preds = %12
  %16 = load i64, ptr %7, align 8
  %17 = icmp ne i64 %16, 0
  br i1 %17, label %18, label %21

18:                                               ; preds = %15
  %19 = load ptr, ptr %8, align 8
  %20 = icmp ne ptr %19, null
  br i1 %20, label %22, label %21

21:                                               ; preds = %18, %15, %12, %4
  store i32 8, ptr %9, align 4
  br label %35

22:                                               ; preds = %18
  %23 = load ptr, ptr %8, align 8
  %24 = getelementptr inbounds nuw %struct.aom_codec_stream_info, ptr %23, i32 0, i32 0
  store i32 0, ptr %24, align 4
  %25 = load ptr, ptr %8, align 8
  %26 = getelementptr inbounds nuw %struct.aom_codec_stream_info, ptr %25, i32 0, i32 1
  store i32 0, ptr %26, align 4
  %27 = load ptr, ptr %5, align 8
  %28 = getelementptr inbounds nuw %struct.aom_codec_iface, ptr %27, i32 0, i32 6
  %29 = getelementptr inbounds nuw %struct.aom_codec_dec_iface, ptr %28, i32 0, i32 0
  %30 = load ptr, ptr %29, align 8
  %31 = load ptr, ptr %6, align 8
  %32 = load i64, ptr %7, align 8
  %33 = load ptr, ptr %8, align 8
  %34 = call i32 %30(ptr noundef %31, i64 noundef %32, ptr noundef %33)
  store i32 %34, ptr %9, align 4
  br label %35

35:                                               ; preds = %22, %21
  %36 = load i32, ptr %9, align 4
  ret i32 %36
}