; Function Attrs: nounwind uwtable
define hidden i32 @aom_codec_peek_stream_info(ptr noundef readonly %0, ptr noundef %1, i64 noundef %2, ptr noundef %3) local_unnamed_addr #0 {
  %5 = icmp ne ptr %0, null
  %6 = icmp ne ptr %1, null
  %or.cond = and i1 %5, %6
  %7 = icmp ne i64 %2, 0
  %or.cond3 = and i1 %or.cond, %7
  %8 = icmp ne ptr %3, null
  %or.cond5 = and i1 %or.cond3, %8
  br i1 %or.cond5, label %9, label %14

9:                                                ; preds = %4
  store i32 0, ptr %3, align 4
  %10 = getelementptr inbounds nuw i8, ptr %3, i64 4
  store i32 0, ptr %10, align 4
  %11 = getelementptr inbounds nuw i8, ptr %0, i64 48
  %12 = load ptr, ptr %11, align 8
  %13 = tail call i32 %12(ptr noundef nonnull %1, i64 noundef %2, ptr noundef nonnull %3) #3
  br label %14

14:                                               ; preds = %4, %9
  %.0 = phi i32 [ %13, %9 ], [ 8, %4 ]
  ret i32 %.0
}